target datalayout = "e-m:e-p270:32:32-p271:32:32-p272:64:64-i64:64-i128:128-f80:128-n8:16:32:64-S128"
target triple = "x86_64-pc-linux-gnu"

; Function Attrs: inlinehint nounwind uwtable
define internal i32 @H5VM_log2_gen(i64 noundef %0) #3 {
  %2 = alloca i64, align 8
  %3 = alloca i32, align 4
  %4 = alloca i32, align 4
  %5 = alloca i32, align 4
  %6 = alloca i32, align 4
  store i64 %0, ptr %2, align 8, !tbaa !10
  call void @llvm.lifetime.start.p0(i64 4, ptr %3) #7
  call void @llvm.lifetime.start.p0(i64 4, ptr %4) #7
  call void @llvm.lifetime.start.p0(i64 4, ptr %5) #7
  call void @llvm.lifetime.start.p0(i64 4, ptr %6) #7
  %7 = load i64, ptr %2, align 8, !tbaa !10
  %8 = lshr i64 %7, 32
  %9 = trunc i64 %8 to i32
  store i32 %9, ptr %6, align 4, !tbaa !8
  %10 = icmp ne i32 %9, 0
  br i1 %10, label %11, label %61

11:                                               ; preds = %1
  %12 = load i64, ptr %2, align 8, !tbaa !10
  %13 = lshr i64 %12, 48
  %14 = trunc i64 %13 to i32
  store i32 %14, ptr %5, align 4, !tbaa !8
  %15 = icmp ne i32 %14, 0
  br i1 %15, label %16, label %38

16:                                               ; preds = %11
  %17 = load i64, ptr %2, align 8, !tbaa !10
  %18 = lshr i64 %17, 56
  %19 = trunc i64 %18 to i32
  store i32 %19, ptr %4, align 4, !tbaa !8
  %20 = icmp ne i32 %19, 0
  br i1 %20, label %21, label %28

21:                                               ; preds = %16
  %22 = load i32, ptr %4, align 4, !tbaa !8
  %23 = zext i32 %22 to i64
  %24 = getelementptr inbounds nuw [256 x i8], ptr @LogTable256, i64 0, i64 %23
  %25 = load i8, ptr %24, align 1, !tbaa !50
  %26 = zext i8 %25 to i32
  %27 = add i32 56, %26
  br label %36

28:                                               ; preds = %16
  %29 = load i32, ptr %5, align 4, !tbaa !8
  %30 = and i32 %29, 255
  %31 = zext i32 %30 to i64
  %32 = getelementptr inbounds nuw [256 x i8], ptr @LogTable256, i64 0, i64 %31
  %33 = load i8, ptr %32, align 1, !tbaa !50
  %34 = zext i8 %33 to i32
  %35 = add i32 48, %34
  br label %36

36:                                               ; preds = %28, %21
  %37 = phi i32 [ %27, %21 ], [ %35, %28 ]
  store i32 %37, ptr %3, align 4, !tbaa !8
  br label %60

38:                                               ; preds = %11
  %39 = load i64, ptr %2, align 8, !tbaa !10
  %40 = lshr i64 %39, 40
  %41 = trunc i64 %40 to i32
  store i32 %41, ptr %4, align 4, !tbaa !8
  %42 = icmp ne i32 %41, 0
  br i1 %42, label %43, label %50

43:                                               ; preds = %38
  %44 = load i32, ptr %4, align 4, !tbaa !8
  %45 = zext i32 %44 to i64
  %46 = getelementptr inbounds nuw [256 x i8], ptr @LogTable256, i64 0, i64 %45
  %47 = load i8, ptr %46, align 1, !tbaa !50
  %48 = zext i8 %47 to i32
  %49 = add i32 40, %48
  br label %58

50:                                               ; preds = %38
  %51 = load i32, ptr %6, align 4, !tbaa !8
  %52 = and i32 %51, 255
  %53 = zext i32 %52 to i64
  %54 = getelementptr inbounds nuw [256 x i8], ptr @LogTable256, i64 0, i64 %53
  %55 = load i8, ptr %54, align 1, !tbaa !50
  %56 = zext i8 %55 to i32
  %57 = add i32 32, %56
  br label %58

58:                                               ; preds = %50, %43
  %59 = phi i32 [ %49, %43 ], [ %57, %50 ]
  store i32 %59, ptr %3, align 4, !tbaa !8
  br label %60

60:                                               ; preds = %58, %36
  br label %110

61:                                               ; preds = %1
  %62 = load i64, ptr %2, align 8, !tbaa !10
  %63 = lshr i64 %62, 16
  %64 = trunc i64 %63 to i32
  store i32 %64, ptr %5, align 4, !tbaa !8
  %65 = icmp ne i32 %64, 0
  br i1 %65, label %66, label %88

66:                                               ; preds = %61
  %67 = load i64, ptr %2, align 8, !tbaa !10
  %68 = lshr i64 %67, 24
  %69 = trunc i64 %68 to i32
  store i32 %69, ptr %4, align 4, !tbaa !8
  %70 = icmp ne i32 %69, 0
  br i1 %70, label %71, label %78

71:                                               ; preds = %66
  %72 = load i32, ptr %4, align 4, !tbaa !8
  %73 = zext i32 %72 to i64
  %74 = getelementptr inbounds nuw [256 x i8], ptr @LogTable256, i64 0, i64 %73
  %75 = load i8, ptr %74, align 1, !tbaa !50
  %76 = zext i8 %75 to i32
  %77 = add i32 24, %76
  br label %86

78:                                               ; preds = %66
  %79 = load i32, ptr %5, align 4, !tbaa !8
  %80 = and i32 %79, 255
  %81 = zext i32 %80 to i64
  %82 = getelementptr inbounds nuw [256 x i8], ptr @LogTable256, i64 0, i64 %81
  %83 = load i8, ptr %82, align 1, !tbaa !50
  %84 = zext i8 %83 to i32
  %85 = add i32 16, %84
  br label %86

86:                                               ; preds = %78, %71
  %87 = phi i32 [ %77, %71 ], [ %85, %78 ]
  store i32 %87, ptr %3, align 4, !tbaa !8
  br label %109

88:                                               ; preds = %61
  %89 = load i64, ptr %2, align 8, !tbaa !10
  %90 = lshr i64 %89, 8
  %91 = trunc i64 %90 to i32
  store i32 %91, ptr %4, align 4, !tbaa !8
  %92 = icmp ne i32 %91, 0
  br i1 %92, label %93, label %100

93:                                               ; preds = %88
  %94 = load i32, ptr %4, align 4, !tbaa !8
  %95 = zext i32 %94 to i64
  %96 = getelementptr inbounds nuw [256 x i8], ptr @LogTable256, i64 0, i64 %95
  %97 = load i8, ptr %96, align 1, !tbaa !50
  %98 = zext i8 %97 to i32
  %99 = add i32 8, %98
  br label %107

100:                                              ; preds = %88
  %101 = load i64, ptr %2, align 8, !tbaa !10
  %102 = trunc i64 %101 to i8
  %103 = zext i8 %102 to i64
  %104 = getelementptr inbounds nuw [256 x i8], ptr @LogTable256, i64 0, i64 %103
  %105 = load i8, ptr %104, align 1, !tbaa !50
  %106 = zext i8 %105 to i32
  br label %107

107:                                              ; preds = %100, %93
  %108 = phi i32 [ %99, %93 ], [ %106, %100 ]
  store i32 %108, ptr %3, align 4, !tbaa !8
  br label %109

109:                                              ; preds = %107, %86
  br label %110

110:                                              ; preds = %109, %60
  %111 = load i32, ptr %3, align 4, !tbaa !8
  call void @llvm.lifetime.end.p0(i64 4, ptr %6) #7
  call void @llvm.lifetime.end.p0(i64 4, ptr %5) #7
  call void @llvm.lifetime.end.p0(i64 4, ptr %4) #7
  call void @llvm.lifetime.end.p0(i64 4, ptr %3) #7
  ret i32 %111
}