; Function Attrs: inlinehint mustprogress nofree norecurse nosync nounwind willreturn memory(none) uwtable
define internal fastcc range(i32 0, 312) i32 @H5VM_log2_gen(i64 noundef %0) unnamed_addr #1 {
  %2 = lshr i64 %0, 32
  %.not = icmp ult i64 %0, 4294967296
  br i1 %.not, label %29, label %3

3:                                                ; preds = %1
  %4 = lshr i64 %0, 48
  %.not26 = icmp ult i64 %0, 281474976710656
  br i1 %.not26, label %17, label %5

5:                                                ; preds = %3
  %.not28 = icmp ult i64 %0, 72057594037927936
  br i1 %.not28, label %12, label %6

6:                                                ; preds = %5
  %7 = lshr i64 %0, 56
  %8 = getelementptr inbounds nuw [256 x i8], ptr @LogTable256, i64 0, i64 %7
  %9 = load i8, ptr %8, align 1, !tbaa !39
  %10 = zext i8 %9 to i32
  %11 = add nuw nsw i32 %10, 56
  br label %54

12:                                               ; preds = %5
  %13 = getelementptr inbounds nuw [256 x i8], ptr @LogTable256, i64 0, i64 %4
  %14 = load i8, ptr %13, align 1, !tbaa !39
  %15 = zext i8 %14 to i32
  %16 = add nuw nsw i32 %15, 48
  br label %54

17:                                               ; preds = %3
  %.not27 = icmp samesign ult i64 %0, 1099511627776
  br i1 %.not27, label %24, label %18

18:                                               ; preds = %17
  %19 = lshr i64 %0, 40
  %20 = getelementptr inbounds nuw [256 x i8], ptr @LogTable256, i64 0, i64 %19
  %21 = load i8, ptr %20, align 1, !tbaa !39
  %22 = zext i8 %21 to i32
  %23 = add nuw nsw i32 %22, 40
  br label %54

24:                                               ; preds = %17
  %25 = getelementptr inbounds nuw [256 x i8], ptr @LogTable256, i64 0, i64 %2
  %26 = load i8, ptr %25, align 1, !tbaa !39
  %27 = zext i8 %26 to i32
  %28 = add nuw nsw i32 %27, 32
  br label %54

29:                                               ; preds = %1
  %30 = lshr i64 %0, 16
  %.not23 = icmp samesign ult i64 %0, 65536
  br i1 %.not23, label %43, label %31

31:                                               ; preds = %29
  %.not25 = icmp samesign ult i64 %0, 16777216
  br i1 %.not25, label %38, label %32

32:                                               ; preds = %31
  %33 = lshr i64 %0, 24
  %34 = getelementptr inbounds nuw [256 x i8], ptr @LogTable256, i64 0, i64 %33
  %35 = load i8, ptr %34, align 1, !tbaa !39
  %36 = zext i8 %35 to i32
  %37 = add nuw nsw i32 %36, 24
  br label %54

38:                                               ; preds = %31
  %39 = getelementptr inbounds nuw [256 x i8], ptr @LogTable256, i64 0, i64 %30
  %40 = load i8, ptr %39, align 1, !tbaa !39
  %41 = zext i8 %40 to i32
  %42 = add nuw nsw i32 %41, 16
  br label %54

43:                                               ; preds = %29
  %.not24 = icmp samesign ult i64 %0, 256
  br i1 %.not24, label %50, label %44

44:                                               ; preds = %43
  %45 = lshr i64 %0, 8
  %46 = getelementptr inbounds nuw [256 x i8], ptr @LogTable256, i64 0, i64 %45
  %47 = load i8, ptr %46, align 1, !tbaa !39
  %48 = zext i8 %47 to i32
  %49 = add nuw nsw i32 %48, 8
  br label %54

50:                                               ; preds = %43
  %51 = getelementptr inbounds nuw [256 x i8], ptr @LogTable256, i64 0, i64 %0
  %52 = load i8, ptr %51, align 1, !tbaa !39
  %53 = zext i8 %52 to i32
  br label %54

54:                                               ; preds = %44, %50, %32, %38, %18, %24, %6, %12
  %.0 = phi i32 [ %11, %6 ], [ %16, %12 ], [ %23, %18 ], [ %28, %24 ], [ %37, %32 ], [ %42, %38 ], [ %49, %44 ], [ %53, %50 ]
  ret i32 %.0
}